; Function Attrs: nounwind uwtable
define internal fastcc ptr @equality(ptr nocapture noundef writeonly %rest, ptr noundef %tok) unnamed_addr #0 {
entry:
  %tok.addr = alloca ptr, align 8
  store ptr %tok, ptr %tok.addr, align 8
  %call = call fastcc ptr @relational(ptr noundef nonnull %tok.addr, ptr noundef %tok)
  br label %for.cond

for.cond:                                         ; preds = %for.cond.backedge, %entry
  %node.0 = phi ptr [ %call, %entry ], [ %call.i.i.sink9, %for.cond.backedge ]
  %0 = load ptr, ptr %tok.addr, align 8
  %call1 = tail call zeroext i1 @equal(ptr noundef %0, ptr noundef nonnull @.str.10) #13
  br i1 %call1, label %if.then, label %if.end

if.then:                                          ; preds = %for.cond
  %next = getelementptr inbounds %struct.Token, ptr %0, i64 0, i32 1
  %1 = load ptr, ptr %next, align 8
  %call2 = call fastcc ptr @relational(ptr noundef nonnull %tok.addr, ptr noundef %1)
  %call.i.i = tail call noalias noundef dereferenceable_or_null(288) ptr @calloc(i64 noundef 1, i64 noundef 288) #14
  store i32 12, ptr %call.i.i, align 16
  br label %for.cond.backedge

for.cond.backedge:                                ; preds = %if.then, %if.then5
  %call.i.i.sink9 = phi ptr [ %call.i.i, %if.then ], [ %call.i.i4, %if.then5 ]
  %call2.sink = phi ptr [ %call2, %if.then ], [ %call7, %if.then5 ]
  %tok2.i.i = getelementptr inbounds %struct.Node, ptr %call.i.i.sink9, i64 0, i32 3
  store ptr %0, ptr %tok2.i.i, align 8
  %lhs1.i = getelementptr inbounds %struct.Node, ptr %call.i.i.sink9, i64 0, i32 4
  store ptr %node.0, ptr %lhs1.i, align 16
  %rhs2.i = getelementptr inbounds %struct.Node, ptr %call.i.i.sink9, i64 0, i32 5
  store ptr %call2.sink, ptr %rhs2.i, align 8
  br label %for.cond

if.end:                                           ; preds = %for.cond
  %call4 = tail call zeroext i1 @equal(ptr noundef %0, ptr noundef nonnull @.str.11) #13
  br i1 %call4, label %if.then5, label %if.end9

if.then5:                                         ; preds = %if.end
  %next6 = getelementptr inbounds %struct.Token, ptr %0, i64 0, i32 1
  %2 = load ptr, ptr %next6, align 8
  %call7 = call fastcc ptr @relational(ptr noundef nonnull %tok.addr, ptr noundef %2)
  %call.i.i4 = tail call noalias noundef dereferenceable_or_null(288) ptr @calloc(i64 noundef 1, i64 noundef 288) #14
  store i32 13, ptr %call.i.i4, align 16
  br label %for.cond.backedge

if.end9:                                          ; preds = %if.end
  store ptr %0, ptr %rest, align 8
  ret ptr %node.0
}